
 FileStat

 Start         Length     Name                   Class
 0001:00000000 000006FC4H CODE32                 CODE 32-bit
 0002:00000000 000000019H CODE16                 CODE 16-bit
 0003:00000000 000000030H _MSGSEG32              CODE 32-bit
 0004:00000000 000000008H LIBDATA16              DATA16 16-bit
 0005:00000000 000000CE0H DATA32                 DATA 32-bit
 0005:00000CE0 000000000H CTOR_DTOR1             DATA 32-bit
 0005:00000CE0 000000000H CTOR_DTOR2             DATA 32-bit
 0005:00000CE0 000000000H CTOR_DTOR3             DATA 32-bit
 0005:00000CE0 000000000H CPP1                   DATA 32-bit
 0005:00000CE0 000000000H CPP2                   DATA 32-bit
 0005:00000CE0 000000000H CPP3                   DATA 32-bit
 0005:00000CE0 000000740H CONST32                CONST 32-bit
 0005:00001420 00000000CH EDC1                   EDC_CLASS 32-bit
 0005:0000142C 000000270H EDC2                   EDC_CLASS 32-bit
 0005:0000169C 000000004H EDC3                   EDC_CLASS 32-bit
 0005:000016A0 000000000H BSS32                  BSS 32-bit
 0005:000016A0 000000100H c_common               BSS 32-bit

 Origin   Group
 0005:0   DGROUP
 0000:0   FLAT

 Address       Export                  Alias

 0005:00000004 FileStateCClassData     FileStateCClassData
 0005:00000000 FileStateClassData      FileStateClassData
 0001:00000224 FileStateNewClass       FileStateNewClass
 0005:00000010 M_FileStateCClassData   M_FileStateCClassData
 0005:0000000C M_FileStateClassData    M_FileStateClassData
 0001:00000614 M_FileStateNewClass     M_FileStateNewClass

  Address         Publics by Name

 0005:000016D0       @BSSEDCINIT.C
 0005:00001750       @BSSfilestat.c
 0005:00001790       @BSSFLOATFMT.C
 0005:000016E0       @BSSLUCVT.C
 0005:000016A8       @BSSN_EXCEPT.C
 0005:00001784       @BSSPRTEMSG.C
 0001:000015C0       calloc
 0005:0000178C       commonEIBtable
 0000:00000000  Imp  DOS32FLATTOSEL       (DOSCALLS.425)
 0003:00000012       DOS32GETMESSAGE
 0003:00000012       Dos32GetMessage
 0000:00000000  Imp  DOS32IQUERYMESSAGECP (MSG.8)
 0000:00000000  Imp  DOS32SELTOFLAT       (DOSCALLS.426)
 0000:00000000  Imp  DOS32TRUEGETMESSAGE  (MSG.6)
 0000:00000000  Imp  DosAllocMem          (DOSCALLS.299)
 0000:00000000  Imp  DosAllocSharedMem    (DOSCALLS.300)
 0000:00000000  Imp  DosCloseEventSem     (DOSCALLS.326)
 0000:00000000  Imp  DosCloseMutexSem     (DOSCALLS.333)
 0000:00000000  Imp  DosCreateEventSem    (DOSCALLS.324)
 0000:00000000  Imp  DosCreateMutexSem    (DOSCALLS.331)
 0000:00000000  Imp  DosCreateThread      (DOSCALLS.311)
 0000:00000000  Imp  DosExit              (DOSCALLS.234)
 0000:00000000  Imp  DOSFLATTOSEL         (DOSCALLS.425)
 0000:00000000  Imp  DosFreeMem           (DOSCALLS.304)
 0000:00000000  Imp  DosGetInfoBlocks     (DOSCALLS.312)
 0003:00000012       DOSGETMESSAGE
 0003:00000012       DosGetMessage
 0000:00000000  Imp  DosGetNamedSharedMem (DOSCALLS.301)
 0000:00000000  Imp  DOSPOSTEVENTSEM      (DOSCALLS.328)
 0000:00000000  Imp  DosQueryCtryInfo     (NLS.5)
 0000:00000000  Imp  DosQueryDBCSEnv      (NLS.6)
 0000:00000000  Imp  DosQueryHType        (DOSCALLS.224)
 0000:00000000  Imp  DosQueryPathInfo     (DOSCALLS.223)
 0000:00000000  Imp  DosQuerySysInfo      (DOSCALLS.348)
 0000:00000000  Imp  DosRaiseException    (DOSCALLS.356)
 0000:00000000  Imp  DOSRELEASEMUTEXSEM   (DOSCALLS.335)
 0000:00000000  Imp  DOSREQUESTMUTEXSEM   (DOSCALLS.334)
 0000:00000000  Imp  DOSRESETEVENTSEM     (DOSCALLS.327)
 0000:00000000  Imp  DosSetExceptionHandler (DOSCALLS.354)
 0000:00000000  Imp  DosSetFilePtr        (DOSCALLS.256)
 0000:00000000  Imp  DosSetSignalExceptionFocus (DOSCALLS.378)
 0000:00000000  Imp  DOSWAITEVENTSEM      (DOSCALLS.329)
 0000:00000000  Imp  DosWrite             (DOSCALLS.282)
 0000:00000000  Imp  DrgQueryDragitem     (PMDRAG.44)
 0000:00000000  Imp  DrgQueryDragitemCount (PMDRAG.45)
 0000:00000000  Imp  DrgVerifyRMF         (PMDRAG.59)
 0001:00003258       fflush
 0001:00000AC4       FileStatC_wpclsInitData
 0001:00000B18       FileStatC_wpclsUnInitData
 0005:00000004       FileStateCClassData
 0005:00000000       FileStateClassData
 0001:00000224       FileStateNewClass
 0001:00000764       FileStatX_wpDragOver
 0001:00000838       FileStatX_wpDrop
 0001:00006C34       findEIB__FPl
 0001:00004588       free
 0001:000047FC       getenv
 0001:00000B6C       GoThrough
 0001:000051F8       malloc
 0001:00005608       memmove
 0001:00005654       memset
 0005:00000010       M_FileStateCClassData
 0005:0000000C       M_FileStateClassData
 0001:00000614       M_FileStateNewClass
 0000:00000000  Imp  M_WPAbstractNewClass (PMWP.327)
 0000:00000000  Imp  M_WPObjectClassData  (PMWP.323)
 0001:0000106C       pszFormatV
 0001:00006AE8       set_new_handler__FPFv_v
 0003:00000000       sig32
 0000:00000000  Imp  SOMClassClassData    (som.3)
 0000:00000000  Imp  SOMClassMgrClassData (som.6)
 0000:00000000  Imp  SOMClassMgrObject    (som.7)
 0000:00000000  Imp  somConstructClass    (som.28)
 0000:00000000  Imp  somDataResolve       (som.47)
 0000:00000000  Imp  somEnvironmentNew    (som.30)
 0000:00000000  Imp  SOMError             (som.9)
 0000:00000000  Imp  somIdFromString      (som.31)
 0000:00000000  Imp  SOMObjectClassData   (som.14)
 0000:00000000  Imp  somParentResolve     (som.33)
 0000:00000000  Imp  somPrintf            (som.35)
 0000:00000000  Imp  somResolve           (som.37)
 0000:00000000  Imp  somTestCls           (som.42)
 0000:00000000  Imp  SOM_TraceLevel       (som.18)
 0005:000016F0       startEntry
 0005:00000888       stderr
 0005:00000880       stdin
 0005:00000884       stdout
 0001:00006480       strcmp
 0001:000064AC       strcpy
 0001:000064E8       strlen
 0001:0000650C       strspn
 0001:000066D8       wcstombs
 0001:00006858       wctomb
 0000:00000000  Imp  WinMessageBox        (PMWIN.789)
 0000:00000000  Imp  WPAbstractNewClass   (PMWP.27)
 0000:00000000  Imp  WPFileSystemClassData (PMWP.11)
 0000:00000000  Imp  WPFolderClassData    (PMWP.14)
 0000:00000000  Imp  WPObjectClassData    (PMWP.23)
 0000:00000000  Imp  WPShadowClassData    (PMWP.32)
 0001:00001184       _beginthread
 0001:000014B4       _bit_test_set
 0001:000014C8       _bufprint
 0001:00006094       _callback_opt_sys
 0001:000030EC       _CloseSem
 0001:00001698       _control87
 0001:00003134       _CreateSem
 0001:00005EAC       _critlib_except
 0001:00001234       _CrtGetLocalData
 0001:000011EC       _CrtInitThread
 0001:000028C4       _CRT_init
 0005:00000740       _crt_msg_handle
 0001:00002D5C       _CRT_term
 0005:00000750       _ctable
 0005:000016B8       _ctype
 0005:00000854       _ctypeModule
 0005:00000890       _daylight
 0005:00000860       _dllentry
 0001:00006358       _DLL_InitTerm
 0001:00006350       _DosFlatToSel
 0001:00006348       _DosSelToFlat
 0005:000016A0       _edata
 0001:00002CA4       _edcGetMessage
 0005:0000177C       _edcinit_fin
 0005:000017A0       _end
 0001:00002F4C       _endthread
 0005:000016A0       _environ
 0001:000065A4       _errno
 0001:00006070       _Exception
 0001:00005750       _exception_dllinit
 0001:0000571C       _exception_procinit
 0001:00005CF0       _EXE_Exception
 0001:00003244       _fcloseall_weak
 0001:000033BC       _fillb
 0005:00001420       _firsteib
 0001:00003608       _floatfmt
 0005:00000B80       _fltused
 0001:000040A8       _Flush
 0001:00004260       _flushb
 0001:00004578       _fpreset
 0001:000017DC       _freeCtype
 0001:00001804       _freeCtype_weak
 0001:0000467C       _FreeFCB
 0001:0000180C       _freeLocale_weak
 0001:00004758       _freeThreadStorage
 0001:000056C0       _get_eib
 0001:000060AC       _get_seglim
 0005:000016A4       _have_freed
 0001:0000498C       _heapmin
 0001:00004B14       _heapmin_int
 0001:00004D4C       _ilog2
 0001:000016F8       _init_ctype
 0001:00001808       _init_ctype_weak
 0001:00004D54       _internal_err
 0005:0000169C       _lasteib
 0001:00005D34       _Lib_excpt
 0005:00001780       _locale_initialized
 0001:00004DA8       _ltoa
 0001:00004E4C       _lucvt
 0001:000055F4       _matherr
 0005:00000BE0       _matherr_ptr
 0001:00002CC8       _Math_Exception_Def
 0005:000016BC       _memory_sem
 0001:000060E8       _MesgServ
 0001:000056B0       _mig_eib_store
 0005:000016B4       _osmajor
 0005:000016CC       _osminor
 0005:00000898       _osmode
 0005:00001700       _pBucketArr
 0005:0000088C       _PGLOBAL_PTR
 0005:00000DF0       _pospow1
 0005:00001070       _pospow2
 0001:000062E0       _PrintErrMsg
 0001:00005B8C       _recreate_exception
 0001:000060A0       _Regen_exception
 0001:0000322C       _ReleaseSem
 0001:000031AC       _RequestSem
 0001:000063A0       _setupenv
 0001:000016C4       _set_crt_msg_handle
 0001:00006B08       _set_mt_new_handler__FPFv_v
 0001:00005294       _split_chunk
 0001:0000113C       _sprintfieee
 0001:0000111C       _sprintf_ansi
 0001:00006548       _terminate
 0005:000016F4       _TerminateAndDumpSem
 0001:00006088       _Test_and_reset
 0001:00002C48       _test_handle
 0005:00000894       _timezone
 0005:00001744       _tmemory_sem
 0005:00001774       _tzname
 0001:0000668C       _uwrite
 0001:00006938       _wcputs
 0001:00006994       _wfgetposMem
 0001:0000694C       _wfloatfmt
 0001:000069B0       _wfsetposMem
 0001:00006974       _wOpenMemory
 0001:000069B8       _wreadbSyncMem
 0001:0000697C       _wRemoveMem
 0001:00006990       _wrewindMem
 0001:000069A8       _wSeekMem
 0001:00006980       _wtellMem
 0001:000069BC       _wuwriteMem
 0001:00006340       _w_raise
 0001:00005FF4       _w_Terminate_and_dump
 0001:00005690       __Async_exception_flag
 0001:000065F4       __broken_time_ptr
 0005:000008A0       __char_set_type
 0001:00006594       __cppstore
 0005:00000CA0       __ctdtused
 0005:000016C8       __ctordtorCurrent
 0005:00000CE0       __ctordtorEnd
 0001:000069C0       __ctordtorInit
 0005:00000CE0       __ctordtorStart
 0001:00006AB0       __ctordtorTerm
 0001:00006FAC       __CurrentException
 0001:00006604       __cvt_buf_ptr
 0005:00001788       __c_local_ctype
 0005:0000089C       __decimal_point
 0001:00001810       __dofmto
 0001:000065B4       __doserrno
 0001:000065C4       __dttm_ptr
 0001:0000282C       __EDC3216
 0001:00002CDC       __EDCThunkProlog
 0005:00000CE0       __EIBEnd
 0005:00000CE0       __EIBStart
 0001:00005780       __Exception
 0004:00000000       __fac
 0001:000065E4       __flags
 0001:0000460C       __free
 0001:00006BA8       __GetThreadArea__Fv
 0001:00006624       __internal_buf_ptr
 0001:00006614       __lcvt_buf_ptr
 0001:0000537C       __malloc
 0005:00001740       __new_handler
 0001:00006B34       __nw__FUi
 0001:00006634       __perror_msg_ptr
 0001:00006670       __random_seed
 0001:00006DE8       __register_EIB_table
 0001:000056A0       __Saved_return_address
 0001:000065D4       __strerror_msg_ptr
 0001:00006654       __strtok_pos
 0001:00006644       __tempname_ptr
 0001:00006568       __threadid
 0001:00006664       __version

  Address         Publics by Value

 0000:00000000  Imp  M_WPObjectClassData  (PMWP.323)
 0000:00000000  Imp  M_WPAbstractNewClass (PMWP.327)
 0000:00000000  Imp  SOMClassMgrObject    (som.7)
 0000:00000000  Imp  DOSPOSTEVENTSEM      (DOSCALLS.328)
 0000:00000000  Imp  WPShadowClassData    (PMWP.32)
 0000:00000000  Imp  DosRaiseException    (DOSCALLS.356)
 0000:00000000  Imp  DOSREQUESTMUTEXSEM   (DOSCALLS.334)
 0000:00000000  Imp  WPFolderClassData    (PMWP.14)
 0000:00000000  Imp  SOMClassMgrClassData (som.6)
 0000:00000000  Imp  DrgQueryDragitemCount (PMDRAG.45)
 0000:00000000  Imp  DrgQueryDragitem     (PMDRAG.44)
 0000:00000000  Imp  DosGetNamedSharedMem (DOSCALLS.301)
 0000:00000000  Imp  DOSRESETEVENTSEM     (DOSCALLS.327)
 0000:00000000  Imp  somIdFromString      (som.31)
 0000:00000000  Imp  DOS32SELTOFLAT       (DOSCALLS.426)
 0000:00000000  Imp  SOMError             (som.9)
 0000:00000000  Imp  DosAllocSharedMem    (DOSCALLS.300)
 0000:00000000  Imp  DosQueryCtryInfo     (NLS.5)
 0000:00000000  Imp  SOM_TraceLevel       (som.18)
 0000:00000000  Imp  DOS32FLATTOSEL       (DOSCALLS.425)
 0000:00000000  Imp  DrgVerifyRMF         (PMDRAG.59)
 0000:00000000  Imp  DosSetFilePtr        (DOSCALLS.256)
 0000:00000000  Imp  WinMessageBox        (PMWIN.789)
 0000:00000000  Imp  DosQuerySysInfo      (DOSCALLS.348)
 0000:00000000  Imp  DosFreeMem           (DOSCALLS.304)
 0000:00000000  Imp  DOS32IQUERYMESSAGECP (MSG.8)
 0000:00000000  Imp  SOMClassClassData    (som.3)
 0000:00000000  Imp  somParentResolve     (som.33)
 0000:00000000  Imp  DOS32TRUEGETMESSAGE  (MSG.6)
 0000:00000000  Imp  DosGetInfoBlocks     (DOSCALLS.312)
 0000:00000000  Imp  DosSetSignalExceptionFocus (DOSCALLS.378)
 0000:00000000  Imp  DosCreateThread      (DOSCALLS.311)
 0000:00000000  Imp  WPFileSystemClassData (PMWP.11)
 0000:00000000  Imp  DosCreateEventSem    (DOSCALLS.324)
 0000:00000000  Imp  somResolve           (som.37)
 0000:00000000  Imp  somTestCls           (som.42)
 0000:00000000  Imp  DosCloseMutexSem     (DOSCALLS.333)
 0000:00000000  Imp  DOSFLATTOSEL         (DOSCALLS.425)
 0000:00000000  Imp  DOSRELEASEMUTEXSEM   (DOSCALLS.335)
 0000:00000000  Imp  somConstructClass    (som.28)
 0000:00000000  Imp  DosWrite             (DOSCALLS.282)
 0000:00000000  Imp  DosQueryHType        (DOSCALLS.224)
 0000:00000000  Imp  WPAbstractNewClass   (PMWP.27)
 0000:00000000  Imp  somDataResolve       (som.47)
 0000:00000000  Imp  DosSetExceptionHandler (DOSCALLS.354)
 0000:00000000  Imp  SOMObjectClassData   (som.14)
 0000:00000000  Imp  DosAllocMem          (DOSCALLS.299)
 0000:00000000  Imp  somEnvironmentNew    (som.30)
 0000:00000000  Imp  DosExit              (DOSCALLS.234)
 0000:00000000  Imp  somPrintf            (som.35)
 0000:00000000  Imp  DosQueryPathInfo     (DOSCALLS.223)
 0000:00000000  Imp  DosQueryDBCSEnv      (NLS.6)
 0000:00000000  Imp  DOSWAITEVENTSEM      (DOSCALLS.329)
 0000:00000000  Imp  WPObjectClassData    (PMWP.23)
 0000:00000000  Imp  DosCreateMutexSem    (DOSCALLS.331)
 0000:00000000  Imp  DosCloseEventSem     (DOSCALLS.326)
 0001:00000224       FileStateNewClass
 0001:00000614       M_FileStateNewClass
 0001:00000764       FileStatX_wpDragOver
 0001:00000838       FileStatX_wpDrop
 0001:00000AC4       FileStatC_wpclsInitData
 0001:00000B18       FileStatC_wpclsUnInitData
 0001:00000B6C       GoThrough
 0001:0000106C       pszFormatV
 0001:0000111C       _sprintf_ansi
 0001:0000113C       _sprintfieee
 0001:00001184       _beginthread
 0001:000011EC       _CrtInitThread
 0001:00001234       _CrtGetLocalData
 0001:000014B4       _bit_test_set
 0001:000014C8       _bufprint
 0001:000015C0       calloc
 0001:00001698       _control87
 0001:000016C4       _set_crt_msg_handle
 0001:000016F8       _init_ctype
 0001:000017DC       _freeCtype
 0001:00001804       _freeCtype_weak
 0001:00001808       _init_ctype_weak
 0001:0000180C       _freeLocale_weak
 0001:00001810       __dofmto
 0001:0000282C       __EDC3216
 0001:000028C4       _CRT_init
 0001:00002C48       _test_handle
 0001:00002CA4       _edcGetMessage
 0001:00002CC8       _Math_Exception_Def
 0001:00002CDC       __EDCThunkProlog
 0001:00002D5C       _CRT_term
 0001:00002F4C       _endthread
 0001:000030EC       _CloseSem
 0001:00003134       _CreateSem
 0001:000031AC       _RequestSem
 0001:0000322C       _ReleaseSem
 0001:00003244       _fcloseall_weak
 0001:00003258       fflush
 0001:000033BC       _fillb
 0001:00003608       _floatfmt
 0001:000040A8       _Flush
 0001:00004260       _flushb
 0001:00004578       _fpreset
 0001:00004588       free
 0001:0000460C       __free
 0001:0000467C       _FreeFCB
 0001:00004758       _freeThreadStorage
 0001:000047FC       getenv
 0001:0000498C       _heapmin
 0001:00004B14       _heapmin_int
 0001:00004D4C       _ilog2
 0001:00004D54       _internal_err
 0001:00004DA8       _ltoa
 0001:00004E4C       _lucvt
 0001:000051F8       malloc
 0001:00005294       _split_chunk
 0001:0000537C       __malloc
 0001:000055F4       _matherr
 0001:00005608       memmove
 0001:00005654       memset
 0001:00005690       __Async_exception_flag
 0001:000056A0       __Saved_return_address
 0001:000056B0       _mig_eib_store
 0001:000056C0       _get_eib
 0001:0000571C       _exception_procinit
 0001:00005750       _exception_dllinit
 0001:00005780       __Exception
 0001:00005B8C       _recreate_exception
 0001:00005CF0       _EXE_Exception
 0001:00005D34       _Lib_excpt
 0001:00005EAC       _critlib_except
 0001:00005FF4       _w_Terminate_and_dump
 0001:00006070       _Exception
 0001:00006088       _Test_and_reset
 0001:00006094       _callback_opt_sys
 0001:000060A0       _Regen_exception
 0001:000060AC       _get_seglim
 0001:000060E8       _MesgServ
 0001:000062E0       _PrintErrMsg
 0001:00006340       _w_raise
 0001:00006348       _DosSelToFlat
 0001:00006350       _DosFlatToSel
 0001:00006358       _DLL_InitTerm
 0001:000063A0       _setupenv
 0001:00006480       strcmp
 0001:000064AC       strcpy
 0001:000064E8       strlen
 0001:0000650C       strspn
 0001:00006548       _terminate
 0001:00006568       __threadid
 0001:00006594       __cppstore
 0001:000065A4       _errno
 0001:000065B4       __doserrno
 0001:000065C4       __dttm_ptr
 0001:000065D4       __strerror_msg_ptr
 0001:000065E4       __flags
 0001:000065F4       __broken_time_ptr
 0001:00006604       __cvt_buf_ptr
 0001:00006614       __lcvt_buf_ptr
 0001:00006624       __internal_buf_ptr
 0001:00006634       __perror_msg_ptr
 0001:00006644       __tempname_ptr
 0001:00006654       __strtok_pos
 0001:00006664       __version
 0001:00006670       __random_seed
 0001:0000668C       _uwrite
 0001:000066D8       wcstombs
 0001:00006858       wctomb
 0001:00006938       _wcputs
 0001:0000694C       _wfloatfmt
 0001:00006974       _wOpenMemory
 0001:0000697C       _wRemoveMem
 0001:00006980       _wtellMem
 0001:00006990       _wrewindMem
 0001:00006994       _wfgetposMem
 0001:000069A8       _wSeekMem
 0001:000069B0       _wfsetposMem
 0001:000069B8       _wreadbSyncMem
 0001:000069BC       _wuwriteMem
 0001:000069C0       __ctordtorInit
 0001:00006AB0       __ctordtorTerm
 0001:00006AE8       set_new_handler__FPFv_v
 0001:00006B08       _set_mt_new_handler__FPFv_v
 0001:00006B34       __nw__FUi
 0001:00006BA8       __GetThreadArea__Fv
 0001:00006C34       findEIB__FPl
 0001:00006DE8       __register_EIB_table
 0001:00006FAC       __CurrentException
 0003:00000000       sig32
 0003:00000012       Dos32GetMessage
 0003:00000012       DOSGETMESSAGE
 0003:00000012       DOS32GETMESSAGE
 0003:00000012       DosGetMessage
 0004:00000000       __fac
 0005:00000000       FileStateClassData
 0005:00000004       FileStateCClassData
 0005:0000000C       M_FileStateClassData
 0005:00000010       M_FileStateCClassData
 0005:00000740       _crt_msg_handle
 0005:00000750       _ctable
 0005:00000854       _ctypeModule
 0005:00000860       _dllentry
 0005:00000880       stdin
 0005:00000884       stdout
 0005:00000888       stderr
 0005:0000088C       _PGLOBAL_PTR
 0005:00000890       _daylight
 0005:00000894       _timezone
 0005:00000898       _osmode
 0005:0000089C       __decimal_point
 0005:000008A0       __char_set_type
 0005:00000B80       _fltused
 0005:00000BE0       _matherr_ptr
 0005:00000CA0       __ctdtused
 0005:00000CE0       __EIBStart
 0005:00000CE0       __EIBEnd
 0005:00000CE0       __ctordtorEnd
 0005:00000CE0       __ctordtorStart
 0005:00000DF0       _pospow1
 0005:00001070       _pospow2
 0005:00001420       _firsteib
 0005:0000169C       _lasteib
 0005:000016A0       _environ
 0005:000016A0       _edata
 0005:000016A4       _have_freed
 0005:000016A8       @BSSN_EXCEPT.C
 0005:000016B4       _osmajor
 0005:000016B8       _ctype
 0005:000016BC       _memory_sem
 0005:000016C8       __ctordtorCurrent
 0005:000016CC       _osminor
 0005:000016D0       @BSSEDCINIT.C
 0005:000016E0       @BSSLUCVT.C
 0005:000016F0       startEntry
 0005:000016F4       _TerminateAndDumpSem
 0005:00001700       _pBucketArr
 0005:00001740       __new_handler
 0005:00001744       _tmemory_sem
 0005:00001750       @BSSfilestat.c
 0005:00001774       _tzname
 0005:0000177C       _edcinit_fin
 0005:00001780       _locale_initialized
 0005:00001784       @BSSPRTEMSG.C
 0005:00001788       __c_local_ctype
 0005:0000178C       commonEIBtable
 0005:00001790       @BSSFLOATFMT.C
 0005:000017A0       _end

Program entry point at 0001:00006358
